; Function Attrs: mustprogress nofree nounwind uwtable
define void @_ZN32pxrInternal_v0_24__pxrReserved__21pxr_double_conversion6Bignum9ShiftLeftEi(ptr nocapture noundef nonnull align 4 dereferenceable(516) %0, i32 noundef %1) local_unnamed_addr #4 align 2 {
  %3 = load i16, ptr %0, align 4
  %4 = icmp eq i16 %3, 0
  br i1 %4, label %_ZN32pxrInternal_v0_24__pxrReserved__21pxr_double_conversion6Bignum15BigitsShiftLeftEi.exit, label %5

5:                                                ; preds = %2
  %6 = sdiv i32 %1, 28
  %7 = getelementptr inbounds nuw i8, ptr %0, i64 2
  %8 = load i16, ptr %7, align 2
  %9 = trunc i32 %6 to i16
  %10 = add i16 %8, %9
  store i16 %10, ptr %7, align 2
  %11 = srem i32 %1, 28
  %12 = icmp sgt i16 %3, 127
  br i1 %12, label %13, label %_ZN32pxrInternal_v0_24__pxrReserved__21pxr_double_conversion6Bignum14EnsureCapacityEi.exit

13:                                               ; preds = %5
  tail call void @abort() #11
  unreachable

_ZN32pxrInternal_v0_24__pxrReserved__21pxr_double_conversion6Bignum14EnsureCapacityEi.exit: ; preds = %5
  %14 = icmp sgt i16 %3, 0
  br i1 %14, label %.lr.ph.i, label %_ZN32pxrInternal_v0_24__pxrReserved__21pxr_double_conversion6Bignum15BigitsShiftLeftEi.exit

.lr.ph.i:                                         ; preds = %_ZN32pxrInternal_v0_24__pxrReserved__21pxr_double_conversion6Bignum14EnsureCapacityEi.exit
  %wide.trip.count.i = zext nneg i16 %3 to i64
  %15 = getelementptr inbounds nuw i8, ptr %0, i64 4
  %16 = sub nsw i32 28, %11
  br label %17

17:                                               ; preds = %17, %.lr.ph.i
  %indvars.iv.i = phi i64 [ 0, %.lr.ph.i ], [ %indvars.iv.next.i, %17 ]
  %.014.i = phi i32 [ 0, %.lr.ph.i ], [ %20, %17 ]
  %18 = getelementptr inbounds [128 x i32], ptr %15, i64 0, i64 %indvars.iv.i
  %19 = load i32, ptr %18, align 4
  %20 = lshr i32 %19, %16
  %21 = shl i32 %19, %11
  %22 = add i32 %21, %.014.i
  %23 = and i32 %22, 268435455
  store i32 %23, ptr %18, align 4
  %indvars.iv.next.i = add nuw nsw i64 %indvars.iv.i, 1
  %exitcond.not.i = icmp eq i64 %indvars.iv.next.i, %wide.trip.count.i
  br i1 %exitcond.not.i, label %._crit_edge.i, label %17, !llvm.loop !17

._crit_edge.i:                                    ; preds = %17
  %.not.i = icmp eq i32 %20, 0
  br i1 %.not.i, label %_ZN32pxrInternal_v0_24__pxrReserved__21pxr_double_conversion6Bignum15BigitsShiftLeftEi.exit, label %24

24:                                               ; preds = %._crit_edge.i
  %25 = getelementptr inbounds [128 x i32], ptr %15, i64 0, i64 %wide.trip.count.i
  store i32 %20, ptr %25, align 4
  %26 = add nuw i16 %3, 1
  store i16 %26, ptr %0, align 4
  br label %_ZN32pxrInternal_v0_24__pxrReserved__21pxr_double_conversion6Bignum15BigitsShiftLeftEi.exit

_ZN32pxrInternal_v0_24__pxrReserved__21pxr_double_conversion6Bignum15BigitsShiftLeftEi.exit: ; preds = %24, %._crit_edge.i, %_ZN32pxrInternal_v0_24__pxrReserved__21pxr_double_conversion6Bignum14EnsureCapacityEi.exit, %2
  ret void
}